; Function Attrs: nounwind uwtable
define internal ptr @ExecProcNodeInstr(ptr noundef %0) #0 {
  %2 = getelementptr inbounds nuw i8, ptr %0, i64 40
  %3 = load ptr, ptr %2, align 8
  tail call void @InstrStartNode(ptr noundef %3) #6
  %4 = getelementptr inbounds nuw i8, ptr %0, i64 32
  %5 = load ptr, ptr %4, align 8
  %6 = tail call ptr %5(ptr noundef %0) #6
  %7 = load ptr, ptr %2, align 8
  %8 = icmp eq ptr %6, null
  br i1 %8, label %14, label %9

9:                                                ; preds = %1
  %10 = getelementptr inbounds nuw i8, ptr %6, i64 4
  %11 = load i16, ptr %10, align 4
  %12 = and i16 %11, 2
  %.not = icmp eq i16 %12, 0
  %13 = select i1 %.not, double 1.000000e+00, double 0.000000e+00
  br label %14

14:                                               ; preds = %9, %1
  %15 = phi double [ 0.000000e+00, %1 ], [ %13, %9 ]
  tail call void @InstrStopNode(ptr noundef %7, double noundef %15) #6
  ret ptr %6
}